target datalayout = "e-m:e-p270:32:32-p271:32:32-p272:64:64-i64:64-i128:128-f80:128-n8:16:32:64-S128"
target triple = "x86_64-pc-linux-gnu"

%struct.gmx_ana_pos_t = type <{ ptr, ptr, ptr, %struct.gmx_ana_indexmap_t, i32, [4 x i8] }>
%struct.gmx_ana_indexmap_t = type { i32, ptr, ptr, %struct.t_blocka, ptr, %struct.t_blocka, i8 }
%struct.t_blocka = type { i32, ptr, i32, ptr, i32, i32 }

@.str = private unnamed_addr constant [2 x i8] c"x\00", align 1
@.str.1 = private unnamed_addr constant [128 x i8] c"generated/home/dtcxzyw/WorkSpace/Projects/compilers/llvm-opt-benchmark/bench/gromacs/gromacs/src/gromacs/selection/position.cpp\00", align 1
@.str.2 = private unnamed_addr constant [2 x i8] c"v\00", align 1
@.str.3 = private unnamed_addr constant [2 x i8] c"f\00", align 1

; Function Attrs: mustprogress uwtable
define internal void @_ZL14gmx_sfree_implIA3_fEvPKcS2_iPT_(ptr noundef %0, ptr noundef %1, i32 noundef %2, ptr noundef %3) #0 {
  %5 = alloca ptr, align 8
  %6 = alloca ptr, align 8
  %7 = alloca i32, align 4
  %8 = alloca ptr, align 8
  store ptr %0, ptr %5, align 8
  store ptr %1, ptr %6, align 8
  store i32 %2, ptr %7, align 4
  store ptr %3, ptr %8, align 8
  %9 = load ptr, ptr %5, align 8
  %10 = load ptr, ptr %6, align 8
  %11 = load i32, ptr %7, align 4
  %12 = load ptr, ptr %8, align 8
  call void @_Z9save_freePKcS0_iPv(ptr noundef %9, ptr noundef %10, i32 noundef %11, ptr noundef %12)
  ret void
}

; Function Attrs: mustprogress nounwind uwtable
define void @_ZN13gmx_ana_pos_tD2Ev(ptr noundef nonnull align 8 dereferenceable(148) %0) unnamed_addr #2 align 2 personality ptr @__gxx_personality_v0 {
  %2 = alloca ptr, align 8
  store ptr %0, ptr %2, align 8
  %3 = load ptr, ptr %2, align 8
  %4 = getelementptr inbounds %struct.gmx_ana_pos_t, ptr %3, i32 0, i32 0
  %5 = load ptr, ptr %4, align 8
  invoke void @_ZL14gmx_sfree_implIA3_fEvPKcS2_iPT_(ptr noundef @.str, ptr noundef @.str.1, i32 noundef 63, ptr noundef %5)
          to label %6 unwind label %15

6:                                                ; preds = %1
  %7 = getelementptr inbounds %struct.gmx_ana_pos_t, ptr %3, i32 0, i32 1
  %8 = load ptr, ptr %7, align 8
  invoke void @_ZL14gmx_sfree_implIA3_fEvPKcS2_iPT_(ptr noundef @.str.2, ptr noundef @.str.1, i32 noundef 64, ptr noundef %8)
          to label %9 unwind label %15

9:                                                ; preds = %6
  %10 = getelementptr inbounds %struct.gmx_ana_pos_t, ptr %3, i32 0, i32 2
  %11 = load ptr, ptr %10, align 8
  invoke void @_ZL14gmx_sfree_implIA3_fEvPKcS2_iPT_(ptr noundef @.str.3, ptr noundef @.str.1, i32 noundef 65, ptr noundef %11)
          to label %12 unwind label %15

12:                                               ; preds = %9
  %13 = getelementptr inbounds %struct.gmx_ana_pos_t, ptr %3, i32 0, i32 3
  invoke void @_Z23gmx_ana_indexmap_deinitP18gmx_ana_indexmap_t(ptr noundef %13)
          to label %14 unwind label %15

14:                                               ; preds = %12
  ret void

15:                                               ; preds = %12, %9, %6, %1
  %16 = landingpad { ptr, i32 }
          catch ptr null
  %17 = extractvalue { ptr, i32 } %16, 0
  call void @__clang_call_terminate(ptr %17) #6
  unreachable
}